target datalayout = "e-m:e-p270:32:32-p271:32:32-p272:64:64-i64:64-i128:128-f80:128-n8:16:32:64-S128"
target triple = "x86_64-pc-linux-gnu"

%struct.DdNode = type { i32, i32, ptr, %union.anon, i64 }
%union.anon = type { %struct.DdChildren }
%struct.DdChildren = type { ptr, ptr }

; Function Attrs: nounwind uwtable
define ptr @extraComposeCover(ptr noundef %0, ptr noundef %1, ptr noundef %2, ptr noundef %3, i32 noundef %4) #0 {
  %6 = alloca ptr, align 8
  %7 = alloca ptr, align 8
  %8 = alloca ptr, align 8
  %9 = alloca ptr, align 8
  %10 = alloca ptr, align 8
  %11 = alloca i32, align 4
  %12 = alloca ptr, align 8
  %13 = alloca ptr, align 8
  %14 = alloca i32, align 4
  store ptr %0, ptr %7, align 8, !tbaa !3
  store ptr %1, ptr %8, align 8, !tbaa !8
  store ptr %2, ptr %9, align 8, !tbaa !8
  store ptr %3, ptr %10, align 8, !tbaa !8
  store i32 %4, ptr %11, align 4, !tbaa !37
  call void @llvm.lifetime.start.p0(i64 8, ptr %12) #10
  call void @llvm.lifetime.start.p0(i64 8, ptr %13) #10
  %15 = load ptr, ptr %7, align 8, !tbaa !3
  %16 = load i32, ptr %11, align 4, !tbaa !37
  %17 = mul nsw i32 2, %16
  %18 = add nsw i32 %17, 1
  %19 = load ptr, ptr %8, align 8, !tbaa !8
  %20 = load ptr, ptr %10, align 8, !tbaa !8
  %21 = call ptr @cuddZddGetNode(ptr noundef %15, i32 noundef %18, ptr noundef %19, ptr noundef %20)
  store ptr %21, ptr %13, align 8, !tbaa !8
  %22 = load ptr, ptr %13, align 8, !tbaa !8
  %23 = icmp eq ptr %22, null
  br i1 %23, label %24, label %31

24:                                               ; preds = %5
  %25 = load ptr, ptr %7, align 8, !tbaa !3
  %26 = load ptr, ptr %8, align 8, !tbaa !8
  call void @Cudd_RecursiveDerefZdd(ptr noundef %25, ptr noundef %26)
  %27 = load ptr, ptr %7, align 8, !tbaa !3
  %28 = load ptr, ptr %9, align 8, !tbaa !8
  call void @Cudd_RecursiveDerefZdd(ptr noundef %27, ptr noundef %28)
  %29 = load ptr, ptr %7, align 8, !tbaa !3
  %30 = load ptr, ptr %10, align 8, !tbaa !8
  call void @Cudd_RecursiveDerefZdd(ptr noundef %29, ptr noundef %30)
  store ptr null, ptr %6, align 8
  store i32 1, ptr %14, align 4
  br label %82

31:                                               ; preds = %5
  %32 = load ptr, ptr %13, align 8, !tbaa !8
  %33 = ptrtoint ptr %32 to i64
  %34 = and i64 %33, -2
  %35 = inttoptr i64 %34 to ptr
  %36 = getelementptr inbounds nuw %struct.DdNode, ptr %35, i32 0, i32 1
  %37 = load i32, ptr %36, align 4, !tbaa !34
  %38 = add i32 %37, 1
  store i32 %38, ptr %36, align 4, !tbaa !34
  %39 = load ptr, ptr %8, align 8, !tbaa !8
  %40 = ptrtoint ptr %39 to i64
  %41 = and i64 %40, -2
  %42 = inttoptr i64 %41 to ptr
  %43 = getelementptr inbounds nuw %struct.DdNode, ptr %42, i32 0, i32 1
  %44 = load i32, ptr %43, align 4, !tbaa !34
  %45 = add i32 %44, -1
  store i32 %45, ptr %43, align 4, !tbaa !34
  %46 = load ptr, ptr %10, align 8, !tbaa !8
  %47 = ptrtoint ptr %46 to i64
  %48 = and i64 %47, -2
  %49 = inttoptr i64 %48 to ptr
  %50 = getelementptr inbounds nuw %struct.DdNode, ptr %49, i32 0, i32 1
  %51 = load i32, ptr %50, align 4, !tbaa !34
  %52 = add i32 %51, -1
  store i32 %52, ptr %50, align 4, !tbaa !34
  %53 = load ptr, ptr %7, align 8, !tbaa !3
  %54 = load i32, ptr %11, align 4, !tbaa !37
  %55 = mul nsw i32 2, %54
  %56 = load ptr, ptr %9, align 8, !tbaa !8
  %57 = load ptr, ptr %13, align 8, !tbaa !8
  %58 = call ptr @cuddZddGetNode(ptr noundef %53, i32 noundef %55, ptr noundef %56, ptr noundef %57)
  store ptr %58, ptr %12, align 8, !tbaa !8
  %59 = load ptr, ptr %12, align 8, !tbaa !8
  %60 = icmp eq ptr %59, null
  br i1 %60, label %61, label %66

61:                                               ; preds = %31
  %62 = load ptr, ptr %7, align 8, !tbaa !3
  %63 = load ptr, ptr %9, align 8, !tbaa !8
  call void @Cudd_RecursiveDerefZdd(ptr noundef %62, ptr noundef %63)
  %64 = load ptr, ptr %7, align 8, !tbaa !3
  %65 = load ptr, ptr %13, align 8, !tbaa !8
  call void @Cudd_RecursiveDerefZdd(ptr noundef %64, ptr noundef %65)
  store ptr null, ptr %6, align 8
  store i32 1, ptr %14, align 4
  br label %82

66:                                               ; preds = %31
  %67 = load ptr, ptr %9, align 8, !tbaa !8
  %68 = ptrtoint ptr %67 to i64
  %69 = and i64 %68, -2
  %70 = inttoptr i64 %69 to ptr
  %71 = getelementptr inbounds nuw %struct.DdNode, ptr %70, i32 0, i32 1
  %72 = load i32, ptr %71, align 4, !tbaa !34
  %73 = add i32 %72, -1
  store i32 %73, ptr %71, align 4, !tbaa !34
  %74 = load ptr, ptr %13, align 8, !tbaa !8
  %75 = ptrtoint ptr %74 to i64
  %76 = and i64 %75, -2
  %77 = inttoptr i64 %76 to ptr
  %78 = getelementptr inbounds nuw %struct.DdNode, ptr %77, i32 0, i32 1
  %79 = load i32, ptr %78, align 4, !tbaa !34
  %80 = add i32 %79, -1
  store i32 %80, ptr %78, align 4, !tbaa !34
  %81 = load ptr, ptr %12, align 8, !tbaa !8
  store ptr %81, ptr %6, align 8
  store i32 1, ptr %14, align 4
  br label %82

82:                                               ; preds = %66, %61, %24
  call void @llvm.lifetime.end.p0(i64 8, ptr %13) #10
  call void @llvm.lifetime.end.p0(i64 8, ptr %12) #10
  %83 = load ptr, ptr %6, align 8
  ret ptr %83
}