; Function Attrs: nounwind uwtable
define ptr @extraComposeCover(ptr noundef %0, ptr noundef %1, ptr noundef %2, ptr noundef %3, i32 noundef %4) local_unnamed_addr #0 {
  %6 = shl nsw i32 %4, 1
  %7 = or disjoint i32 %6, 1
  %8 = tail call ptr @cuddZddGetNode(ptr noundef %0, i32 noundef %7, ptr noundef %1, ptr noundef %3) #19
  %9 = icmp eq ptr %8, null
  br i1 %9, label %10, label %11

10:                                               ; preds = %5
  tail call void @Cudd_RecursiveDerefZdd(ptr noundef %0, ptr noundef %1) #19
  tail call void @Cudd_RecursiveDerefZdd(ptr noundef %0, ptr noundef %2) #19
  tail call void @Cudd_RecursiveDerefZdd(ptr noundef %0, ptr noundef %3) #19
  br label %42

11:                                               ; preds = %5
  %12 = ptrtoint ptr %8 to i64
  %13 = and i64 %12, -2
  %14 = inttoptr i64 %13 to ptr
  %15 = getelementptr inbounds nuw i8, ptr %14, i64 4
  %16 = load i32, ptr %15, align 4, !tbaa !24
  %17 = add i32 %16, 1
  store i32 %17, ptr %15, align 4, !tbaa !24
  %18 = ptrtoint ptr %1 to i64
  %19 = and i64 %18, -2
  %20 = inttoptr i64 %19 to ptr
  %21 = getelementptr inbounds nuw i8, ptr %20, i64 4
  %22 = load i32, ptr %21, align 4, !tbaa !24
  %23 = add i32 %22, -1
  store i32 %23, ptr %21, align 4, !tbaa !24
  %24 = ptrtoint ptr %3 to i64
  %25 = and i64 %24, -2
  %26 = inttoptr i64 %25 to ptr
  %27 = getelementptr inbounds nuw i8, ptr %26, i64 4
  %28 = load i32, ptr %27, align 4, !tbaa !24
  %29 = add i32 %28, -1
  store i32 %29, ptr %27, align 4, !tbaa !24
  %30 = tail call ptr @cuddZddGetNode(ptr noundef %0, i32 noundef %6, ptr noundef %2, ptr noundef nonnull %8) #19
  %31 = icmp eq ptr %30, null
  br i1 %31, label %32, label %33

32:                                               ; preds = %11
  tail call void @Cudd_RecursiveDerefZdd(ptr noundef %0, ptr noundef %2) #19
  tail call void @Cudd_RecursiveDerefZdd(ptr noundef %0, ptr noundef nonnull %8) #19
  br label %42

33:                                               ; preds = %11
  %34 = ptrtoint ptr %2 to i64
  %35 = and i64 %34, -2
  %36 = inttoptr i64 %35 to ptr
  %37 = getelementptr inbounds nuw i8, ptr %36, i64 4
  %38 = load i32, ptr %37, align 4, !tbaa !24
  %39 = add i32 %38, -1
  store i32 %39, ptr %37, align 4, !tbaa !24
  %40 = load i32, ptr %15, align 4, !tbaa !24
  %41 = add i32 %40, -1
  store i32 %41, ptr %15, align 4, !tbaa !24
  br label %42

42:                                               ; preds = %33, %32, %10
  %.0 = phi ptr [ null, %10 ], [ null, %32 ], [ %30, %33 ]
  ret ptr %.0
}